; Function Attrs: mustprogress nofree norecurse nosync nounwind ssp willreturn memory(argmem: readwrite) uwtable
define internal void @_ZN6open3d4core6kernelL26CPULogicalAndElementKernelIddEEvPKvS4_Pv(ptr noundef readonly captures(none) %0, ptr noundef readonly captures(none) %1, ptr noundef writeonly captures(none) initializes((0, 8)) %2) #15 {
  %4 = load double, ptr %0, align 8, !tbaa !714
  %5 = fcmp une double %4, 0.000000e+00
  br i1 %5, label %6, label %10

6:                                                ; preds = %3
  %7 = load double, ptr %1, align 8, !tbaa !714
  %8 = fcmp une double %7, 0.000000e+00
  %9 = uitofp i1 %8 to double
  br label %10

10:                                               ; preds = %6, %3
  %11 = phi double [ 0.000000e+00, %3 ], [ %9, %6 ]
  store double %11, ptr %2, align 8, !tbaa !714
  ret void
}